target datalayout = "e-m:e-p270:32:32-p271:32:32-p272:64:64-i64:64-i128:128-f80:128-n8:16:32:64-S128"
target triple = "x86_64-unknown-linux-gnu"

@.str = private unnamed_addr constant [45 x i8] c"-ERR invalid longitude,latitude pair %f,%f\0D\0A\00", align 1

; Function Attrs: nounwind uwtable
define dso_local i32 @extractLongLatOrReply(ptr noundef %c, ptr noundef %argv, ptr noundef %xy) #0 {
entry:
  %retval = alloca i32, align 4
  %c.addr = alloca ptr, align 8
  %argv.addr = alloca ptr, align 8
  %xy.addr = alloca ptr, align 8
  %i = alloca i32, align 4
  store ptr %c, ptr %c.addr, align 8
  store ptr %argv, ptr %argv.addr, align 8
  store ptr %xy, ptr %xy.addr, align 8
  store i32 0, ptr %i, align 4
  br label %for.cond

for.cond:                                         ; preds = %for.inc, %entry
  %0 = load i32, ptr %i, align 4
  %cmp = icmp slt i32 %0, 2
  br i1 %cmp, label %for.body, label %for.end

for.body:                                         ; preds = %for.cond
  %1 = load ptr, ptr %c.addr, align 8
  %2 = load ptr, ptr %argv.addr, align 8
  %3 = load i32, ptr %i, align 4
  %idxprom = sext i32 %3 to i64
  %arrayidx = getelementptr inbounds ptr, ptr %2, i64 %idxprom
  %4 = load ptr, ptr %arrayidx, align 8
  %5 = load ptr, ptr %xy.addr, align 8
  %6 = load i32, ptr %i, align 4
  %idx.ext = sext i32 %6 to i64
  %add.ptr = getelementptr inbounds double, ptr %5, i64 %idx.ext
  %call = call i32 @getDoubleFromObjectOrReply(ptr noundef %1, ptr noundef %4, ptr noundef %add.ptr, ptr noundef null)
  %cmp1 = icmp ne i32 %call, 0
  br i1 %cmp1, label %if.then, label %if.end

if.then:                                          ; preds = %for.body
  store i32 -1, ptr %retval, align 4
  br label %return

if.end:                                           ; preds = %for.body
  br label %for.inc

for.inc:                                          ; preds = %if.end
  %7 = load i32, ptr %i, align 4
  %inc = add nsw i32 %7, 1
  store i32 %inc, ptr %i, align 4
  br label %for.cond, !llvm.loop !7

for.end:                                          ; preds = %for.cond
  %8 = load ptr, ptr %xy.addr, align 8
  %arrayidx2 = getelementptr inbounds double, ptr %8, i64 0
  %9 = load double, ptr %arrayidx2, align 8
  %cmp3 = fcmp olt double %9, -1.800000e+02
  br i1 %cmp3, label %if.then12, label %lor.lhs.false

lor.lhs.false:                                    ; preds = %for.end
  %10 = load ptr, ptr %xy.addr, align 8
  %arrayidx4 = getelementptr inbounds double, ptr %10, i64 0
  %11 = load double, ptr %arrayidx4, align 8
  %cmp5 = fcmp ogt double %11, 1.800000e+02
  br i1 %cmp5, label %if.then12, label %lor.lhs.false6

lor.lhs.false6:                                   ; preds = %lor.lhs.false
  %12 = load ptr, ptr %xy.addr, align 8
  %arrayidx7 = getelementptr inbounds double, ptr %12, i64 1
  %13 = load double, ptr %arrayidx7, align 8
  %cmp8 = fcmp olt double %13, 0xC0554345B1A57F00
  br i1 %cmp8, label %if.then12, label %lor.lhs.false9

lor.lhs.false9:                                   ; preds = %lor.lhs.false6
  %14 = load ptr, ptr %xy.addr, align 8
  %arrayidx10 = getelementptr inbounds double, ptr %14, i64 1
  %15 = load double, ptr %arrayidx10, align 8
  %cmp11 = fcmp ogt double %15, 0x40554345B1A57F00
  br i1 %cmp11, label %if.then12, label %if.end15

if.then12:                                        ; preds = %lor.lhs.false9, %lor.lhs.false6, %lor.lhs.false, %for.end
  %16 = load ptr, ptr %c.addr, align 8
  %17 = load ptr, ptr %xy.addr, align 8
  %arrayidx13 = getelementptr inbounds double, ptr %17, i64 0
  %18 = load double, ptr %arrayidx13, align 8
  %19 = load ptr, ptr %xy.addr, align 8
  %arrayidx14 = getelementptr inbounds double, ptr %19, i64 1
  %20 = load double, ptr %arrayidx14, align 8
  call void (ptr, ptr, ...) @addReplyErrorFormat(ptr noundef %16, ptr noundef @.str, double noundef %18, double noundef %20)
  store i32 -1, ptr %retval, align 4
  br label %return

if.end15:                                         ; preds = %lor.lhs.false9
  store i32 0, ptr %retval, align 4
  br label %return

return:                                           ; preds = %if.end15, %if.then12, %if.then
  %21 = load i32, ptr %retval, align 4
  ret i32 %21
}