; Function Attrs: nounwind uwtable
define dso_local noundef i32 @extractLongLatOrReply(ptr noundef %c, ptr nocapture noundef readonly %argv, ptr noundef %xy) local_unnamed_addr #0 {
entry:
  br label %for.body

for.cond:                                         ; preds = %for.body
  br i1 %cmp, label %for.body, label %for.end, !llvm.loop !7

for.body:                                         ; preds = %entry, %for.cond
  %cmp = phi i1 [ true, %entry ], [ false, %for.cond ]
  %indvars.iv = phi i64 [ 0, %entry ], [ 1, %for.cond ]
  %arrayidx = getelementptr inbounds ptr, ptr %argv, i64 %indvars.iv
  %0 = load ptr, ptr %arrayidx, align 8
  %add.ptr = getelementptr inbounds double, ptr %xy, i64 %indvars.iv
  %call = tail call i32 @getDoubleFromObjectOrReply(ptr noundef %c, ptr noundef %0, ptr noundef %add.ptr, ptr noundef null) #14
  %cmp1.not = icmp eq i32 %call, 0
  br i1 %cmp1.not, label %for.cond, label %return

for.end:                                          ; preds = %for.cond
  %1 = load double, ptr %xy, align 8
  %2 = tail call double @llvm.fabs.f64(double %1)
  %or.cond = fcmp ogt double %2, 1.800000e+02
  %arrayidx14.phi.trans.insert = getelementptr inbounds i8, ptr %xy, i64 8
  %.pre = load double, ptr %arrayidx14.phi.trans.insert, align 8
  %3 = tail call double @llvm.fabs.f64(double %.pre)
  %or.cond12 = fcmp ogt double %3, 0x40554345B1A57F00
  %or.cond15 = select i1 %or.cond, i1 true, i1 %or.cond12
  br i1 %or.cond15, label %if.then12, label %return

if.then12:                                        ; preds = %for.end
  tail call void (ptr, ptr, ...) @addReplyErrorFormat(ptr noundef %c, ptr noundef nonnull @.str, double noundef %1, double noundef %.pre) #14
  br label %return

return:                                           ; preds = %for.body, %for.end, %if.then12
  %retval.0 = phi i32 [ -1, %if.then12 ], [ 0, %for.end ], [ -1, %for.body ]
  ret i32 %retval.0
}